; Function Attrs: mustprogress nofree norecurse nosync nounwind willreturn memory(argmem: read) uwtable
define dso_local noundef zeroext i1 @_ZN5clang30OpenACCClauseWithSingleIntExpr7classofEPKNS_13OpenACCClauseE(ptr noundef readonly captures(none) %0) local_unnamed_addr #0 align 2 {
switch.edge:
  %1 = getelementptr inbounds nuw i8, ptr %0, i64 8
  %2 = load i32, ptr %1, align 8
  %3 = icmp ult i32 %2, 47
  %switch.cast = zext nneg i32 %2 to i47
  %switch.downshift = lshr i47 -67619965108224, %switch.cast
  %switch.masked = trunc i47 %switch.downshift to i1
  %4 = select i1 %3, i1 %switch.masked, i1 false
  ret i1 %4
}